; Function Attrs: mustprogress nofree norecurse nosync nounwind willreturn memory(argmem: write) uwtable
define dso_local void @_ZN4node5http211Http2Stream8ProviderC2Ei(ptr nocapture noundef nonnull writeonly align 8 dereferenceable(25) %this, i32 noundef %options) unnamed_addr #19 align 2 {
entry:
  store ptr getelementptr inbounds ({ [4 x ptr] }, ptr @_ZTVN4node5http211Http2Stream8ProviderE, i64 0, i32 0, i64 2), ptr %this, align 8
  %empty_ = getelementptr inbounds i8, ptr %this, i64 24
  %provider_2 = getelementptr inbounds i8, ptr %this, i64 8
  store ptr null, ptr %provider_2, align 8
  %0 = trunc i32 %options to i8
  %frombool = and i8 %0, 1
  store i8 %frombool, ptr %empty_, align 8
  ret void
}